; Function Attrs: nounwind uwtable
define dso_local void @Curl_conn_ev_data_done_send(ptr noundef %0) local_unnamed_addr #1 {
  %2 = getelementptr inbounds nuw i8, ptr %0, i64 24
  %3 = load ptr, ptr %2, align 8, !tbaa !56
  %4 = getelementptr inbounds nuw i8, ptr %3, i64 608
  br label %.split.us.i

.split.us.i:                                      ; preds = %Curl_conn_cf_cntrl.exit.thread.us.i, %1
  %5 = phi i1 [ false, %Curl_conn_cf_cntrl.exit.thread.us.i ], [ true, %1 ]
  %.05.us.i = phi i64 [ 1, %Curl_conn_cf_cntrl.exit.thread.us.i ], [ 0, %1 ]
  %6 = getelementptr inbounds nuw [2 x ptr], ptr %4, i64 0, i64 %.05.us.i
  %7 = load ptr, ptr %6, align 8, !tbaa !51
  %.not1517.i.us.i = icmp eq ptr %7, null
  br i1 %.not1517.i.us.i, label %Curl_conn_cf_cntrl.exit.thread.us.i, label %.lr.ph.split.us.i.us.i

.lr.ph.split.us.i.us.i:                           ; preds = %.split.us.i, %14
  %.01218.us.i.us.i = phi ptr [ %16, %14 ], [ %7, %.split.us.i ]
  %8 = load ptr, ptr %.01218.us.i.us.i, align 8, !tbaa !15
  %9 = getelementptr inbounds nuw i8, ptr %8, i64 88
  %10 = load ptr, ptr %9, align 8, !tbaa !129
  %11 = icmp eq ptr %10, @Curl_cf_def_cntrl
  br i1 %11, label %14, label %12

12:                                               ; preds = %.lr.ph.split.us.i.us.i
  %13 = tail call i32 %10(ptr noundef nonnull %.01218.us.i.us.i, ptr noundef %0, i32 noundef 8, i32 noundef 0, ptr noundef null) #12
  br label %14

14:                                               ; preds = %12, %.lr.ph.split.us.i.us.i
  %15 = getelementptr inbounds nuw i8, ptr %.01218.us.i.us.i, i64 8
  %16 = load ptr, ptr %15, align 8, !tbaa !8
  %.not15.us.i.us.i = icmp eq ptr %16, null
  br i1 %.not15.us.i.us.i, label %Curl_conn_cf_cntrl.exit.thread.us.i, label %.lr.ph.split.us.i.us.i, !llvm.loop !130

Curl_conn_cf_cntrl.exit.thread.us.i:              ; preds = %14, %.split.us.i
  br i1 %5, label %.split.us.i, label %cf_cntrl_all.exit, !llvm.loop !131

cf_cntrl_all.exit:                                ; preds = %Curl_conn_cf_cntrl.exit.thread.us.i
  ret void
}